target datalayout = "e-m:e-p270:32:32-p271:32:32-p272:64:64-i64:64-i128:128-f80:128-n8:16:32:64-S128"
target triple = "x86_64-pc-linux-gnu"

%struct.H5D_earray_ctx_t = type { i64, i64 }

@H5D_init_g = external global i8, align 1
@H5_libterm_g = external global i8, align 1

; Function Attrs: nounwind uwtable
define internal i32 @H5D__earray_decode(ptr noundef %0, ptr noundef %1, i64 noundef %2, ptr noundef %3) #0 {
  %5 = alloca ptr, align 8
  %6 = alloca ptr, align 8
  %7 = alloca i64, align 8
  %8 = alloca ptr, align 8
  %9 = alloca ptr, align 8
  %10 = alloca ptr, align 8
  %11 = alloca ptr, align 8
  store ptr %0, ptr %5, align 8, !tbaa !80
  store ptr %1, ptr %6, align 8, !tbaa !80
  store i64 %2, ptr %7, align 8, !tbaa !10
  store ptr %3, ptr %8, align 8, !tbaa !80
  call void @llvm.lifetime.start.p0(i64 8, ptr %9) #8
  %12 = load ptr, ptr %8, align 8, !tbaa !80
  store ptr %12, ptr %9, align 8, !tbaa !107
  call void @llvm.lifetime.start.p0(i64 8, ptr %10) #8
  %13 = load ptr, ptr %6, align 8, !tbaa !80
  store ptr %13, ptr %10, align 8, !tbaa !98
  call void @llvm.lifetime.start.p0(i64 8, ptr %11) #8
  %14 = load ptr, ptr %5, align 8, !tbaa !80
  store ptr %14, ptr %11, align 8, !tbaa !113
  %15 = load i8, ptr @H5D_init_g, align 1, !tbaa !14, !range !16, !noundef !17
  %16 = trunc i8 %15 to i1
  br i1 %16, label %21, label %17

17:                                               ; preds = %4
  %18 = load i8, ptr @H5_libterm_g, align 1, !tbaa !14, !range !16, !noundef !17
  %19 = trunc i8 %18 to i1
  %20 = xor i1 %19, true
  br label %21

21:                                               ; preds = %17, %4
  %22 = phi i1 [ true, %4 ], [ %20, %17 ]
  %23 = xor i1 %22, true
  %24 = xor i1 %23, true
  %25 = zext i1 %24 to i32
  %26 = sext i32 %25 to i64
  %27 = call i64 @llvm.expect.i64(i64 %26, i64 1)
  %28 = icmp ne i64 %27, 0
  br i1 %28, label %29, label %43

29:                                               ; preds = %21
  br label %30

30:                                               ; preds = %33, %29
  %31 = load i64, ptr %7, align 8, !tbaa !10
  %32 = icmp ne i64 %31, 0
  br i1 %32, label %33, label %42

33:                                               ; preds = %30
  %34 = load ptr, ptr %9, align 8, !tbaa !107
  %35 = getelementptr inbounds nuw %struct.H5D_earray_ctx_t, ptr %34, i32 0, i32 0
  %36 = load i64, ptr %35, align 8, !tbaa !109
  %37 = load ptr, ptr %10, align 8, !tbaa !98
  call void @H5F_addr_decode_len(i64 noundef %36, ptr noundef %11, ptr noundef %37)
  %38 = load ptr, ptr %10, align 8, !tbaa !98
  %39 = getelementptr inbounds nuw i64, ptr %38, i32 1
  store ptr %39, ptr %10, align 8, !tbaa !98
  %40 = load i64, ptr %7, align 8, !tbaa !10
  %41 = add i64 %40, -1
  store i64 %41, ptr %7, align 8, !tbaa !10
  br label %30, !llvm.loop !115

42:                                               ; preds = %30
  br label %43

43:                                               ; preds = %42, %21
  call void @llvm.lifetime.end.p0(i64 8, ptr %11) #8
  call void @llvm.lifetime.end.p0(i64 8, ptr %10) #8
  call void @llvm.lifetime.end.p0(i64 8, ptr %9) #8
  ret i32 0
}